
UART LED PROJECT.elf:     file format elf32-littlearm

Sections:
Idx Name          Size      VMA       LMA       File off  Algn
  0 .isr_vector   00000188  08000000  08000000  00001000  2**0
                  CONTENTS, ALLOC, LOAD, READONLY, DATA
  1 .text         00000380  08000188  08000188  00001188  2**2
                  CONTENTS, ALLOC, LOAD, READONLY, CODE
  2 .rodata       00000038  08000508  08000508  00001508  2**2
                  CONTENTS, ALLOC, LOAD, READONLY, DATA
  3 .ARM.extab    00000000  08000540  08000540  00001550  2**0
                  CONTENTS, READONLY
  4 .ARM          00000008  08000540  08000540  00001540  2**2
                  CONTENTS, ALLOC, LOAD, READONLY, DATA
  5 .preinit_array 00000000  08000548  08000550  00001550  2**0
                  CONTENTS, ALLOC, LOAD, DATA
  6 .init_array   00000004  08000548  08000548  00001548  2**2
                  CONTENTS, ALLOC, LOAD, READONLY, DATA
  7 .fini_array   00000004  0800054c  0800054c  0000154c  2**2
                  CONTENTS, ALLOC, LOAD, READONLY, DATA
  8 .data         00000000  20000000  20000000  00001550  2**0
                  CONTENTS, ALLOC, LOAD, DATA
  9 .ccmram       00000000  10000000  10000000  00001550  2**0
                  CONTENTS
 10 .bss          00000054  20000000  20000000  00002000  2**2
                  ALLOC
 11 ._user_heap_stack 00000604  20000054  20000054  00002000  2**0
                  ALLOC
 12 .ARM.attributes 00000030  00000000  00000000  00001550  2**0
                  CONTENTS, READONLY
 13 .debug_info   00000483  00000000  00000000  00001580  2**0
                  CONTENTS, READONLY, DEBUGGING, OCTETS
 14 .debug_abbrev 000002b9  00000000  00000000  00001a03  2**0
                  CONTENTS, READONLY, DEBUGGING, OCTETS
 15 .debug_aranges 000000b8  00000000  00000000  00001cc0  2**3
                  CONTENTS, READONLY, DEBUGGING, OCTETS
 16 .debug_rnglists 00000078  00000000  00000000  00001d78  2**0
                  CONTENTS, READONLY, DEBUGGING, OCTETS
 17 .debug_macro  00001b11  00000000  00000000  00001df0  2**0
                  CONTENTS, READONLY, DEBUGGING, OCTETS
 18 .debug_line   00000fb4  00000000  00000000  00003901  2**0
                  CONTENTS, READONLY, DEBUGGING, OCTETS
 19 .debug_str    0000736e  00000000  00000000  000048b5  2**0
                  CONTENTS, READONLY, DEBUGGING, OCTETS
 20 .comment      00000043  00000000  00000000  0000bc23  2**0
                  CONTENTS, READONLY
 21 .debug_frame  0000019c  00000000  00000000  0000bc68  2**2
                  CONTENTS, READONLY, DEBUGGING, OCTETS
 22 .debug_line_str 0000005b  00000000  00000000  0000be04  2**0
                  CONTENTS, READONLY, DEBUGGING, OCTETS

Disassembly of section .text:

08000188 <__do_global_dtors_aux>:
 8000188:	b510      	push	{r4, lr}
 800018a:	4c05      	ldr	r4, [pc, #20]	@ (80001a0 <__do_global_dtors_aux+0x18>)
 800018c:	7823      	ldrb	r3, [r4, #0]
 800018e:	b933      	cbnz	r3, 800019e <__do_global_dtors_aux+0x16>
 8000190:	4b04      	ldr	r3, [pc, #16]	@ (80001a4 <__do_global_dtors_aux+0x1c>)
 8000192:	b113      	cbz	r3, 800019a <__do_global_dtors_aux+0x12>
 8000194:	4804      	ldr	r0, [pc, #16]	@ (80001a8 <__do_global_dtors_aux+0x20>)
 8000196:	f3af 8000 	nop.w
 800019a:	2301      	movs	r3, #1
 800019c:	7023      	strb	r3, [r4, #0]
 800019e:	bd10      	pop	{r4, pc}
 80001a0:	20000000 	.word	0x20000000
 80001a4:	00000000 	.word	0x00000000
 80001a8:	080004f0 	.word	0x080004f0

080001ac <frame_dummy>:
 80001ac:	b508      	push	{r3, lr}
 80001ae:	4b03      	ldr	r3, [pc, #12]	@ (80001bc <frame_dummy+0x10>)
 80001b0:	b11b      	cbz	r3, 80001ba <frame_dummy+0xe>
 80001b2:	4903      	ldr	r1, [pc, #12]	@ (80001c0 <frame_dummy+0x14>)
 80001b4:	4803      	ldr	r0, [pc, #12]	@ (80001c4 <frame_dummy+0x18>)
 80001b6:	f3af 8000 	nop.w
 80001ba:	bd08      	pop	{r3, pc}
 80001bc:	00000000 	.word	0x00000000
 80001c0:	20000004 	.word	0x20000004
 80001c4:	080004f0 	.word	0x080004f0

080001c8 <strcmp>:
 80001c8:	f810 2b01 	ldrb.w	r2, [r0], #1
 80001cc:	f811 3b01 	ldrb.w	r3, [r1], #1
 80001d0:	2a01      	cmp	r2, #1
 80001d2:	bf28      	it	cs
 80001d4:	429a      	cmpcs	r2, r3
 80001d6:	d0f7      	beq.n	80001c8 <strcmp>
 80001d8:	1ad0      	subs	r0, r2, r3
 80001da:	4770      	bx	lr

080001dc <LedInit>:


volatile  uint32_t* const  GPIOx_ODR=(uint32_t*)(0x40020C00+0x14);//GPIOD output


void  LedInit(){
 80001dc:	b480      	push	{r7}
 80001de:	b083      	sub	sp, #12
 80001e0:	af00      	add	r7, sp, #0
	volatile  uint32_t* const RCC_AHB1ENR=(uint32_t*)(0x40023800+0x30);
 80001e2:	4b0e      	ldr	r3, [pc, #56]	@ (800021c <LedInit+0x40>)
 80001e4:	607b      	str	r3, [r7, #4]
	volatile  uint32_t* const  GPIOD_MODER_FOR_PIN=(uint32_t*)(0x40020C00+0x00);//GPIOD MODER
 80001e6:	4b0e      	ldr	r3, [pc, #56]	@ (8000220 <LedInit+0x44>)
 80001e8:	603b      	str	r3, [r7, #0]
	//OPEN CLOCK FOR GPIOD
	*RCC_AHB1ENR|=(1<<3);
 80001ea:	687b      	ldr	r3, [r7, #4]
 80001ec:	681b      	ldr	r3, [r3, #0]
 80001ee:	f043 0208 	orr.w	r2, r3, #8
 80001f2:	687b      	ldr	r3, [r7, #4]
 80001f4:	601a      	str	r2, [r3, #0]

	//PUT GPIOD pin15 IN OUTPUT MODE
	*GPIOD_MODER_FOR_PIN &= ~(3 << 30);
 80001f6:	683b      	ldr	r3, [r7, #0]
 80001f8:	681b      	ldr	r3, [r3, #0]
 80001fa:	f023 4240 	bic.w	r2, r3, #3221225472	@ 0xc0000000
 80001fe:	683b      	ldr	r3, [r7, #0]
 8000200:	601a      	str	r2, [r3, #0]
	*GPIOD_MODER_FOR_PIN |=  (1 << 30);
 8000202:	683b      	ldr	r3, [r7, #0]
 8000204:	681b      	ldr	r3, [r3, #0]
 8000206:	f043 4280 	orr.w	r2, r3, #1073741824	@ 0x40000000
 800020a:	683b      	ldr	r3, [r7, #0]
 800020c:	601a      	str	r2, [r3, #0]
}
 800020e:	bf00      	nop
 8000210:	370c      	adds	r7, #12
 8000212:	46bd      	mov	sp, r7
 8000214:	f85d 7b04 	ldr.w	r7, [sp], #4
 8000218:	4770      	bx	lr
 800021a:	bf00      	nop
 800021c:	40023830 	.word	0x40023830
 8000220:	40020c00 	.word	0x40020c00

08000224 <turnOnBlueLED>:

void turnOnBlueLED(){
 8000224:	b480      	push	{r7}
 8000226:	af00      	add	r7, sp, #0
	//turn on pin15 in GPIOD
	*GPIOx_ODR|=(1<<15);
 8000228:	4b05      	ldr	r3, [pc, #20]	@ (8000240 <turnOnBlueLED+0x1c>)
 800022a:	681b      	ldr	r3, [r3, #0]
 800022c:	4a04      	ldr	r2, [pc, #16]	@ (8000240 <turnOnBlueLED+0x1c>)
 800022e:	f443 4300 	orr.w	r3, r3, #32768	@ 0x8000
 8000232:	6013      	str	r3, [r2, #0]


}
 8000234:	bf00      	nop
 8000236:	46bd      	mov	sp, r7
 8000238:	f85d 7b04 	ldr.w	r7, [sp], #4
 800023c:	4770      	bx	lr
 800023e:	bf00      	nop
 8000240:	40020c14 	.word	0x40020c14

08000244 <turnOffBlueLED>:


void turnOffBlueLED(){
 8000244:	b480      	push	{r7}
 8000246:	af00      	add	r7, sp, #0
	//turn on pin15 in GPIOD
	*GPIOx_ODR&=~(1<<15);
 8000248:	4b05      	ldr	r3, [pc, #20]	@ (8000260 <turnOffBlueLED+0x1c>)
 800024a:	681b      	ldr	r3, [r3, #0]
 800024c:	4a04      	ldr	r2, [pc, #16]	@ (8000260 <turnOffBlueLED+0x1c>)
 800024e:	f423 4300 	bic.w	r3, r3, #32768	@ 0x8000
 8000252:	6013      	str	r3, [r2, #0]


}
 8000254:	bf00      	nop
 8000256:	46bd      	mov	sp, r7
 8000258:	f85d 7b04 	ldr.w	r7, [sp], #4
 800025c:	4770      	bx	lr
 800025e:	bf00      	nop
 8000260:	40020c14 	.word	0x40020c14

08000264 <UART4_SendChar>:

static volatile uint32_t *const UART4_SR = (uint32_t *)UART4_SR_ADDR;
static volatile uint32_t *const UART4_DR = (uint32_t *)UART4_DR_ADDR;

static void UART4_SendChar(char c)
{
 8000264:	b480      	push	{r7}
 8000266:	b083      	sub	sp, #12
 8000268:	af00      	add	r7, sp, #0
 800026a:	4603      	mov	r3, r0
 800026c:	71fb      	strb	r3, [r7, #7]
    while ((*UART4_SR & (1 << 7)) == 0)   // TXE
 800026e:	bf00      	nop
 8000270:	4b07      	ldr	r3, [pc, #28]	@ (8000290 <UART4_SendChar+0x2c>)
 8000272:	681b      	ldr	r3, [r3, #0]
 8000274:	f003 0380 	and.w	r3, r3, #128	@ 0x80
 8000278:	2b00      	cmp	r3, #0
 800027a:	d0f9      	beq.n	8000270 <UART4_SendChar+0xc>
    {
    }

    *UART4_DR = (uint8_t)c;
 800027c:	4a05      	ldr	r2, [pc, #20]	@ (8000294 <UART4_SendChar+0x30>)
 800027e:	79fb      	ldrb	r3, [r7, #7]
 8000280:	6013      	str	r3, [r2, #0]
}
 8000282:	bf00      	nop
 8000284:	370c      	adds	r7, #12
 8000286:	46bd      	mov	sp, r7
 8000288:	f85d 7b04 	ldr.w	r7, [sp], #4
 800028c:	4770      	bx	lr
 800028e:	bf00      	nop
 8000290:	40004c00 	.word	0x40004c00
 8000294:	40004c04 	.word	0x40004c04

08000298 <UART4_SendString>:

static void UART4_SendString(const char *message)
{
 8000298:	b580      	push	{r7, lr}
 800029a:	b082      	sub	sp, #8
 800029c:	af00      	add	r7, sp, #0
 800029e:	6078      	str	r0, [r7, #4]
    while (*message != '\0')
 80002a0:	e007      	b.n	80002b2 <UART4_SendString+0x1a>
    {
        UART4_SendChar(*message);
 80002a2:	687b      	ldr	r3, [r7, #4]
 80002a4:	781b      	ldrb	r3, [r3, #0]
 80002a6:	4618      	mov	r0, r3
 80002a8:	f7ff ffdc 	bl	8000264 <UART4_SendChar>
        message++;
 80002ac:	687b      	ldr	r3, [r7, #4]
 80002ae:	3301      	adds	r3, #1
 80002b0:	607b      	str	r3, [r7, #4]
    while (*message != '\0')
 80002b2:	687b      	ldr	r3, [r7, #4]
 80002b4:	781b      	ldrb	r3, [r3, #0]
 80002b6:	2b00      	cmp	r3, #0
 80002b8:	d1f3      	bne.n	80002a2 <UART4_SendString+0xa>
    }
}
 80002ba:	bf00      	nop
 80002bc:	bf00      	nop
 80002be:	3708      	adds	r7, #8
 80002c0:	46bd      	mov	sp, r7
 80002c2:	bd80      	pop	{r7, pc}

080002c4 <sendLedOn>:

void sendLedOn()
{
 80002c4:	b580      	push	{r7, lr}
 80002c6:	af00      	add	r7, sp, #0
    UART4_SendString("\r\nLED ON: ACTIVE\r\n");
 80002c8:	4802      	ldr	r0, [pc, #8]	@ (80002d4 <sendLedOn+0x10>)
 80002ca:	f7ff ffe5 	bl	8000298 <UART4_SendString>
}
 80002ce:	bf00      	nop
 80002d0:	bd80      	pop	{r7, pc}
 80002d2:	bf00      	nop
 80002d4:	08000508 	.word	0x08000508

080002d8 <sendLedOff>:

void sendLedOff()
{
 80002d8:	b580      	push	{r7, lr}
 80002da:	af00      	add	r7, sp, #0
    UART4_SendString("\r\nLED OFF: ACTIVE\r\n");
 80002dc:	4802      	ldr	r0, [pc, #8]	@ (80002e8 <sendLedOff+0x10>)
 80002de:	f7ff ffdb 	bl	8000298 <UART4_SendString>
}
 80002e2:	bf00      	nop
 80002e4:	bd80      	pop	{r7, pc}
 80002e6:	bf00      	nop
 80002e8:	0800051c 	.word	0x0800051c

080002ec <main>:


volatile uint32_t *const UART4_DR=(uint32_t *)(UART_4_ADRESS+0x04);

int main(void)
{
 80002ec:	b580      	push	{r7, lr}
 80002ee:	b088      	sub	sp, #32
 80002f0:	af00      	add	r7, sp, #0
	LedInit();
 80002f2:	f7ff ff73 	bl	80001dc <LedInit>

	volatile uint32_t *const RCC_AHB1ENR=(uint32_t *)(RCC_ADRESS+0x30);
 80002f6:	4b2a      	ldr	r3, [pc, #168]	@ (80003a0 <main+0xb4>)
 80002f8:	61fb      	str	r3, [r7, #28]
	volatile uint32_t *const GPIOA_MODER=(uint32_t*) (GPIOA_ADRESS+0x00);
 80002fa:	4b2a      	ldr	r3, [pc, #168]	@ (80003a4 <main+0xb8>)
 80002fc:	61bb      	str	r3, [r7, #24]
	volatile uint32_t *const GPIOA_AFRL=(uint32_t*) (GPIOA_ADRESS+0x20);
 80002fe:	4b2a      	ldr	r3, [pc, #168]	@ (80003a8 <main+0xbc>)
 8000300:	617b      	str	r3, [r7, #20]
	volatile uint32_t *const RCC_APB1ENR=(uint32_t *)(RCC_ADRESS+0x40);
 8000302:	4b2a      	ldr	r3, [pc, #168]	@ (80003ac <main+0xc0>)
 8000304:	613b      	str	r3, [r7, #16]
	volatile uint32_t *const UART4_BRR=(uint32_t *)(UART_4_ADRESS+ 0x08);
 8000306:	4b2a      	ldr	r3, [pc, #168]	@ (80003b0 <main+0xc4>)
 8000308:	60fb      	str	r3, [r7, #12]
	volatile uint32_t *const UART4_CR1=(uint32_t *)(UART_4_ADRESS+ 0x0C);
 800030a:	4b2a      	ldr	r3, [pc, #168]	@ (80003b4 <main+0xc8>)
 800030c:	60bb      	str	r3, [r7, #8]
	volatile uint32_t *const NVIC_ISER1=(uint32_t *)(0xE000E100+0x4);
 800030e:	4b2a      	ldr	r3, [pc, #168]	@ (80003b8 <main+0xcc>)
 8000310:	607b      	str	r3, [r7, #4]


	*RCC_AHB1ENR|=0x1;//clock for GPIOA
 8000312:	69fb      	ldr	r3, [r7, #28]
 8000314:	681b      	ldr	r3, [r3, #0]
 8000316:	f043 0201 	orr.w	r2, r3, #1
 800031a:	69fb      	ldr	r3, [r7, #28]
 800031c:	601a      	str	r2, [r3, #0]

	*GPIOA_MODER&=~(0xF);
 800031e:	69bb      	ldr	r3, [r7, #24]
 8000320:	681b      	ldr	r3, [r3, #0]
 8000322:	f023 020f 	bic.w	r2, r3, #15
 8000326:	69bb      	ldr	r3, [r7, #24]
 8000328:	601a      	str	r2, [r3, #0]
	*GPIOA_MODER|=0xA;//changing PA0 and PA1 mode to alternate function mode
 800032a:	69bb      	ldr	r3, [r7, #24]
 800032c:	681b      	ldr	r3, [r3, #0]
 800032e:	f043 020a 	orr.w	r2, r3, #10
 8000332:	69bb      	ldr	r3, [r7, #24]
 8000334:	601a      	str	r2, [r3, #0]

	*GPIOA_AFRL&=~(0xFF);
 8000336:	697b      	ldr	r3, [r7, #20]
 8000338:	681b      	ldr	r3, [r3, #0]
 800033a:	f023 02ff 	bic.w	r2, r3, #255	@ 0xff
 800033e:	697b      	ldr	r3, [r7, #20]
 8000340:	601a      	str	r2, [r3, #0]
	*GPIOA_AFRL|=0x88; //Configure PA0 and PA1 to AF8 (UART4 TX/RX)
 8000342:	697b      	ldr	r3, [r7, #20]
 8000344:	681b      	ldr	r3, [r3, #0]
 8000346:	f043 0288 	orr.w	r2, r3, #136	@ 0x88
 800034a:	697b      	ldr	r3, [r7, #20]
 800034c:	601a      	str	r2, [r3, #0]

	*RCC_APB1ENR|=(0x1<<19);//clock for UART4
 800034e:	693b      	ldr	r3, [r7, #16]
 8000350:	681b      	ldr	r3, [r3, #0]
 8000352:	f443 2200 	orr.w	r2, r3, #524288	@ 0x80000
 8000356:	693b      	ldr	r3, [r7, #16]
 8000358:	601a      	str	r2, [r3, #0]

	*UART4_BRR = 0x8B; // Set baud rate to 115200 bps
 800035a:	68fb      	ldr	r3, [r7, #12]
 800035c:	228b      	movs	r2, #139	@ 0x8b
 800035e:	601a      	str	r2, [r3, #0]
	*UART4_CR1 |= (1 << 13); // UE: USART/UART enable
 8000360:	68bb      	ldr	r3, [r7, #8]
 8000362:	681b      	ldr	r3, [r3, #0]
 8000364:	f443 5200 	orr.w	r2, r3, #8192	@ 0x2000
 8000368:	68bb      	ldr	r3, [r7, #8]
 800036a:	601a      	str	r2, [r3, #0]
	*UART4_CR1 |= (1 << 2); // RE: Receiver enable
 800036c:	68bb      	ldr	r3, [r7, #8]
 800036e:	681b      	ldr	r3, [r3, #0]
 8000370:	f043 0204 	orr.w	r2, r3, #4
 8000374:	68bb      	ldr	r3, [r7, #8]
 8000376:	601a      	str	r2, [r3, #0]
	*UART4_CR1 |= (1 << 3); // TE: Transmitter enable
 8000378:	68bb      	ldr	r3, [r7, #8]
 800037a:	681b      	ldr	r3, [r3, #0]
 800037c:	f043 0208 	orr.w	r2, r3, #8
 8000380:	68bb      	ldr	r3, [r7, #8]
 8000382:	601a      	str	r2, [r3, #0]
	*UART4_CR1 |= (1 << 5); // RXNEIE: interrupt when receive data register not empty
 8000384:	68bb      	ldr	r3, [r7, #8]
 8000386:	681b      	ldr	r3, [r3, #0]
 8000388:	f043 0220 	orr.w	r2, r3, #32
 800038c:	68bb      	ldr	r3, [r7, #8]
 800038e:	601a      	str	r2, [r3, #0]

	*NVIC_ISER1|=(1<<(UART4_IRQN%32));
 8000390:	687b      	ldr	r3, [r7, #4]
 8000392:	681b      	ldr	r3, [r3, #0]
 8000394:	f443 1280 	orr.w	r2, r3, #1048576	@ 0x100000
 8000398:	687b      	ldr	r3, [r7, #4]
 800039a:	601a      	str	r2, [r3, #0]

    /* Loop forever */
	for(;;);
 800039c:	bf00      	nop
 800039e:	e7fd      	b.n	800039c <main+0xb0>
 80003a0:	40023830 	.word	0x40023830
 80003a4:	40020000 	.word	0x40020000
 80003a8:	40020020 	.word	0x40020020
 80003ac:	40023840 	.word	0x40023840
 80003b0:	40004c08 	.word	0x40004c08
 80003b4:	40004c0c 	.word	0x40004c0c
 80003b8:	e000e104 	.word	0xe000e104

080003bc <UART4_IRQHandler>:
volatile uint32_t irq_hit = 0;
int i=0;
char buffer[50]={};

void UART4_IRQHandler(void)
{
 80003bc:	b580      	push	{r7, lr}
 80003be:	b082      	sub	sp, #8
 80003c0:	af00      	add	r7, sp, #0
	volatile uint8_t c = (uint8_t)(*UART4_DR & 0xFF);
 80003c2:	4b1f      	ldr	r3, [pc, #124]	@ (8000440 <UART4_IRQHandler+0x84>)
 80003c4:	681b      	ldr	r3, [r3, #0]
 80003c6:	b2db      	uxtb	r3, r3
 80003c8:	71fb      	strb	r3, [r7, #7]
	if(c!='\n' && c!='\r'){
 80003ca:	79fb      	ldrb	r3, [r7, #7]
 80003cc:	b2db      	uxtb	r3, r3
 80003ce:	2b0a      	cmp	r3, #10
 80003d0:	d00f      	beq.n	80003f2 <UART4_IRQHandler+0x36>
 80003d2:	79fb      	ldrb	r3, [r7, #7]
 80003d4:	b2db      	uxtb	r3, r3
 80003d6:	2b0d      	cmp	r3, #13
 80003d8:	d00b      	beq.n	80003f2 <UART4_IRQHandler+0x36>
		buffer[i]=c;
 80003da:	4b1a      	ldr	r3, [pc, #104]	@ (8000444 <UART4_IRQHandler+0x88>)
 80003dc:	681b      	ldr	r3, [r3, #0]
 80003de:	79fa      	ldrb	r2, [r7, #7]
 80003e0:	b2d1      	uxtb	r1, r2
 80003e2:	4a19      	ldr	r2, [pc, #100]	@ (8000448 <UART4_IRQHandler+0x8c>)
 80003e4:	54d1      	strb	r1, [r2, r3]
		i++;
 80003e6:	4b17      	ldr	r3, [pc, #92]	@ (8000444 <UART4_IRQHandler+0x88>)
 80003e8:	681b      	ldr	r3, [r3, #0]
 80003ea:	3301      	adds	r3, #1
 80003ec:	4a15      	ldr	r2, [pc, #84]	@ (8000444 <UART4_IRQHandler+0x88>)
 80003ee:	6013      	str	r3, [r2, #0]
 80003f0:	e022      	b.n	8000438 <UART4_IRQHandler+0x7c>
	}
	else{
		buffer[i]='\0';
 80003f2:	4b14      	ldr	r3, [pc, #80]	@ (8000444 <UART4_IRQHandler+0x88>)
 80003f4:	681b      	ldr	r3, [r3, #0]
 80003f6:	4a14      	ldr	r2, [pc, #80]	@ (8000448 <UART4_IRQHandler+0x8c>)
 80003f8:	2100      	movs	r1, #0
 80003fa:	54d1      	strb	r1, [r2, r3]
		if(!strcmp(buffer,"LED ON")){
 80003fc:	4913      	ldr	r1, [pc, #76]	@ (800044c <UART4_IRQHandler+0x90>)
 80003fe:	4812      	ldr	r0, [pc, #72]	@ (8000448 <UART4_IRQHandler+0x8c>)
 8000400:	f7ff fee2 	bl	80001c8 <strcmp>
 8000404:	4603      	mov	r3, r0
 8000406:	2b00      	cmp	r3, #0
 8000408:	d104      	bne.n	8000414 <UART4_IRQHandler+0x58>
			turnOnBlueLED();
 800040a:	f7ff ff0b 	bl	8000224 <turnOnBlueLED>
			sendLedOn();
 800040e:	f7ff ff59 	bl	80002c4 <sendLedOn>
 8000412:	e00a      	b.n	800042a <UART4_IRQHandler+0x6e>

		}
		else if(!strcmp(buffer,"LED OFF")){
 8000414:	490e      	ldr	r1, [pc, #56]	@ (8000450 <UART4_IRQHandler+0x94>)
 8000416:	480c      	ldr	r0, [pc, #48]	@ (8000448 <UART4_IRQHandler+0x8c>)
 8000418:	f7ff fed6 	bl	80001c8 <strcmp>
 800041c:	4603      	mov	r3, r0
 800041e:	2b00      	cmp	r3, #0
 8000420:	d103      	bne.n	800042a <UART4_IRQHandler+0x6e>
			turnOffBlueLED();
 8000422:	f7ff ff0f 	bl	8000244 <turnOffBlueLED>
			sendLedOff();
 8000426:	f7ff ff57 	bl	80002d8 <sendLedOff>
		}
		buffer[0]='\0';
 800042a:	4b07      	ldr	r3, [pc, #28]	@ (8000448 <UART4_IRQHandler+0x8c>)
 800042c:	2200      	movs	r2, #0
 800042e:	701a      	strb	r2, [r3, #0]
		i=0;
 8000430:	4b04      	ldr	r3, [pc, #16]	@ (8000444 <UART4_IRQHandler+0x88>)
 8000432:	2200      	movs	r2, #0
 8000434:	601a      	str	r2, [r3, #0]
	}


}
 8000436:	bf00      	nop
 8000438:	bf00      	nop
 800043a:	3708      	adds	r7, #8
 800043c:	46bd      	mov	sp, r7
 800043e:	bd80      	pop	{r7, pc}
 8000440:	40004c04 	.word	0x40004c04
 8000444:	2000001c 	.word	0x2000001c
 8000448:	20000020 	.word	0x20000020
 800044c:	08000530 	.word	0x08000530
 8000450:	08000538 	.word	0x08000538

08000454 <Reset_Handler>:
 8000454:	480d      	ldr	r0, [pc, #52]	@ (800048c <LoopForever+0x2>)
 8000456:	4685      	mov	sp, r0
 8000458:	f3af 8000 	nop.w
 800045c:	480c      	ldr	r0, [pc, #48]	@ (8000490 <LoopForever+0x6>)
 800045e:	490d      	ldr	r1, [pc, #52]	@ (8000494 <LoopForever+0xa>)
 8000460:	4a0d      	ldr	r2, [pc, #52]	@ (8000498 <LoopForever+0xe>)
 8000462:	2300      	movs	r3, #0
 8000464:	e002      	b.n	800046c <LoopCopyDataInit>

08000466 <CopyDataInit>:
 8000466:	58d4      	ldr	r4, [r2, r3]
 8000468:	50c4      	str	r4, [r0, r3]
 800046a:	3304      	adds	r3, #4

0800046c <LoopCopyDataInit>:
 800046c:	18c4      	adds	r4, r0, r3
 800046e:	428c      	cmp	r4, r1
 8000470:	d3f9      	bcc.n	8000466 <CopyDataInit>
 8000472:	4a0a      	ldr	r2, [pc, #40]	@ (800049c <LoopForever+0x12>)
 8000474:	4c0a      	ldr	r4, [pc, #40]	@ (80004a0 <LoopForever+0x16>)
 8000476:	2300      	movs	r3, #0
 8000478:	e001      	b.n	800047e <LoopFillZerobss>

0800047a <FillZerobss>:
 800047a:	6013      	str	r3, [r2, #0]
 800047c:	3204      	adds	r2, #4

0800047e <LoopFillZerobss>:
 800047e:	42a2      	cmp	r2, r4
 8000480:	d3fb      	bcc.n	800047a <FillZerobss>
 8000482:	f000 f811 	bl	80004a8 <__libc_init_array>
 8000486:	f7ff ff31 	bl	80002ec <main>

0800048a <LoopForever>:
 800048a:	e7fe      	b.n	800048a <LoopForever>
 800048c:	20020000 	.word	0x20020000
 8000490:	20000000 	.word	0x20000000
 8000494:	20000000 	.word	0x20000000
 8000498:	08000550 	.word	0x08000550
 800049c:	20000000 	.word	0x20000000
 80004a0:	20000054 	.word	0x20000054

080004a4 <ADC_IRQHandler>:
 80004a4:	e7fe      	b.n	80004a4 <ADC_IRQHandler>
	...

080004a8 <__libc_init_array>:
 80004a8:	b570      	push	{r4, r5, r6, lr}
 80004aa:	4b0d      	ldr	r3, [pc, #52]	@ (80004e0 <__libc_init_array+0x38>)
 80004ac:	4d0d      	ldr	r5, [pc, #52]	@ (80004e4 <__libc_init_array+0x3c>)
 80004ae:	1b5b      	subs	r3, r3, r5
 80004b0:	109c      	asrs	r4, r3, #2
 80004b2:	2600      	movs	r6, #0
 80004b4:	42a6      	cmp	r6, r4
 80004b6:	d109      	bne.n	80004cc <__libc_init_array+0x24>
 80004b8:	f000 f81a 	bl	80004f0 <_init>
 80004bc:	4d0a      	ldr	r5, [pc, #40]	@ (80004e8 <__libc_init_array+0x40>)
 80004be:	4b0b      	ldr	r3, [pc, #44]	@ (80004ec <__libc_init_array+0x44>)
 80004c0:	1b5b      	subs	r3, r3, r5
 80004c2:	109c      	asrs	r4, r3, #2
 80004c4:	2600      	movs	r6, #0
 80004c6:	42a6      	cmp	r6, r4
 80004c8:	d105      	bne.n	80004d6 <__libc_init_array+0x2e>
 80004ca:	bd70      	pop	{r4, r5, r6, pc}
 80004cc:	f855 3b04 	ldr.w	r3, [r5], #4
 80004d0:	4798      	blx	r3
 80004d2:	3601      	adds	r6, #1
 80004d4:	e7ee      	b.n	80004b4 <__libc_init_array+0xc>
 80004d6:	f855 3b04 	ldr.w	r3, [r5], #4
 80004da:	4798      	blx	r3
 80004dc:	3601      	adds	r6, #1
 80004de:	e7f2      	b.n	80004c6 <__libc_init_array+0x1e>
 80004e0:	08000548 	.word	0x08000548
 80004e4:	08000548 	.word	0x08000548
 80004e8:	08000548 	.word	0x08000548
 80004ec:	0800054c 	.word	0x0800054c

080004f0 <_init>:
 80004f0:	b5f8      	push	{r3, r4, r5, r6, r7, lr}
 80004f2:	bf00      	nop
 80004f4:	bcf8      	pop	{r3, r4, r5, r6, r7}
 80004f6:	bc08      	pop	{r3}
 80004f8:	469e      	mov	lr, r3
 80004fa:	4770      	bx	lr

080004fc <_fini>:
 80004fc:	b5f8      	push	{r3, r4, r5, r6, r7, lr}
 80004fe:	bf00      	nop
 8000500:	bcf8      	pop	{r3, r4, r5, r6, r7}
 8000502:	bc08      	pop	{r3}
 8000504:	469e      	mov	lr, r3
 8000506:	4770      	bx	lr
